target datalayout = "e-m:e-p270:32:32-p271:32:32-p272:64:64-i64:64-i128:128-f80:128-n8:16:32:64-S128"
target triple = "x86_64-pc-linux-gnu"

%"class.net::QuicBandwidth" = type { i64 }
%"class.std::__cxx11::basic_string" = type { %"struct.std::__cxx11::basic_string<char>::_Alloc_hider", i64, %union.anon }
%"struct.std::__cxx11::basic_string<char>::_Alloc_hider" = type { ptr }
%union.anon = type { i64, [8 x i8] }

@.str.2 = private unnamed_addr constant [25 x i8] c"%ld bits/s (%ld bytes/s)\00", align 1
@.str.3 = private unnamed_addr constant [31 x i8] c"%.2f %cbits/s (%.2f %cbytes/s)\00", align 1

; Function Attrs: mustprogress uwtable
define void @_ZNK3net13QuicBandwidth12ToDebugValueB5cxx11Ev(ptr dead_on_unwind noalias writable sret(%"class.std::__cxx11::basic_string") align 8 %0, ptr noundef nonnull align 8 dereferenceable(8) %1) #0 align 2 {
  %3 = alloca ptr, align 8
  %4 = alloca ptr, align 8
  %5 = alloca double, align 8
  %6 = alloca i8, align 1
  %7 = alloca double, align 8
  %8 = alloca double, align 8
  store ptr %0, ptr %3, align 8
  store ptr %1, ptr %4, align 8, !tbaa !21
  %9 = load ptr, ptr %4, align 8
  %10 = getelementptr inbounds nuw %"class.net::QuicBandwidth", ptr %9, i32 0, i32 0
  %11 = load i64, ptr %10, align 8, !tbaa !23
  %12 = icmp slt i64 %11, 80000
  br i1 %12, label %13, label %19

13:                                               ; preds = %2
  %14 = getelementptr inbounds nuw %"class.net::QuicBandwidth", ptr %9, i32 0, i32 0
  %15 = load i64, ptr %14, align 8, !tbaa !23
  %16 = getelementptr inbounds nuw %"class.net::QuicBandwidth", ptr %9, i32 0, i32 0
  %17 = load i64, ptr %16, align 8, !tbaa !23
  %18 = sdiv i64 %17, 8
  call void (ptr, ptr, ...) @_ZN4base12StringPrintfB5cxx11EPKcz(ptr dead_on_unwind writable sret(%"class.std::__cxx11::basic_string") align 8 %0, ptr noundef @.str.2, i64 noundef %15, i64 noundef %18)
  br label %45

19:                                               ; preds = %2
  call void @llvm.lifetime.start.p0(i64 8, ptr %5) #7
  call void @llvm.lifetime.start.p0(i64 1, ptr %6) #7
  %20 = getelementptr inbounds nuw %"class.net::QuicBandwidth", ptr %9, i32 0, i32 0
  %21 = load i64, ptr %20, align 8, !tbaa !23
  %22 = icmp slt i64 %21, 8000000
  br i1 %22, label %23, label %24

23:                                               ; preds = %19
  store double 1.000000e+03, ptr %5, align 8, !tbaa !33
  store i8 107, ptr %6, align 1, !tbaa !35
  br label %31

24:                                               ; preds = %19
  %25 = getelementptr inbounds nuw %"class.net::QuicBandwidth", ptr %9, i32 0, i32 0
  %26 = load i64, ptr %25, align 8, !tbaa !23
  %27 = icmp slt i64 %26, 8000000000
  br i1 %27, label %28, label %29

28:                                               ; preds = %24
  store double 1.000000e+06, ptr %5, align 8, !tbaa !33
  store i8 77, ptr %6, align 1, !tbaa !35
  br label %30

29:                                               ; preds = %24
  store double 1.000000e+09, ptr %5, align 8, !tbaa !33
  store i8 71, ptr %6, align 1, !tbaa !35
  br label %30

30:                                               ; preds = %29, %28
  br label %31

31:                                               ; preds = %30, %23
  call void @llvm.lifetime.start.p0(i64 8, ptr %7) #7
  %32 = getelementptr inbounds nuw %"class.net::QuicBandwidth", ptr %9, i32 0, i32 0
  %33 = load i64, ptr %32, align 8, !tbaa !23
  %34 = sitofp i64 %33 to double
  %35 = load double, ptr %5, align 8, !tbaa !33
  %36 = fdiv double %34, %35
  store double %36, ptr %7, align 8, !tbaa !33
  call void @llvm.lifetime.start.p0(i64 8, ptr %8) #7
  %37 = load double, ptr %7, align 8, !tbaa !33
  %38 = fdiv double %37, 8.000000e+00
  store double %38, ptr %8, align 8, !tbaa !33
  %39 = load double, ptr %7, align 8, !tbaa !33
  %40 = load i8, ptr %6, align 1, !tbaa !35
  %41 = sext i8 %40 to i32
  %42 = load double, ptr %8, align 8, !tbaa !33
  %43 = load i8, ptr %6, align 1, !tbaa !35
  %44 = sext i8 %43 to i32
  call void (ptr, ptr, ...) @_ZN4base12StringPrintfB5cxx11EPKcz(ptr dead_on_unwind writable sret(%"class.std::__cxx11::basic_string") align 8 %0, ptr noundef @.str.3, double noundef %39, i32 noundef %41, double noundef %42, i32 noundef %44)
  call void @llvm.lifetime.end.p0(i64 8, ptr %8) #7
  call void @llvm.lifetime.end.p0(i64 8, ptr %7) #7
  call void @llvm.lifetime.end.p0(i64 1, ptr %6) #7
  call void @llvm.lifetime.end.p0(i64 8, ptr %5) #7
  br label %45

45:                                               ; preds = %31, %13
  ret void
}