; Function Attrs: mustprogress uwtable
define void @_ZNK3net13QuicBandwidth12ToDebugValueB5cxx11Ev(ptr dead_on_unwind noalias writable sret(%"class.std::__cxx11::basic_string") align 8 %0, ptr noundef nonnull readonly align 8 captures(none) dereferenceable(8) %1) local_unnamed_addr #0 align 2 {
  %3 = load i64, ptr %1, align 8, !tbaa !3
  %4 = icmp slt i64 %3, 80000
  br i1 %4, label %5, label %7

5:                                                ; preds = %2
  %6 = sdiv i64 %3, 8
  tail call void (ptr, ptr, ...) @_ZN4base12StringPrintfB5cxx11EPKcz(ptr dead_on_unwind writable sret(%"class.std::__cxx11::basic_string") align 8 %0, ptr noundef nonnull @.str.2, i64 noundef %3, i64 noundef %6)
  br label %15

7:                                                ; preds = %2
  %8 = icmp samesign ult i64 %3, 8000000
  br i1 %8, label %11, label %9

9:                                                ; preds = %7
  %10 = icmp samesign ult i64 %3, 8000000000
  %. = select i1 %10, i32 77, i32 71
  %.8 = select i1 %10, double 1.000000e+06, double 1.000000e+09
  br label %11

11:                                               ; preds = %9, %7
  %.06 = phi i32 [ 107, %7 ], [ %., %9 ]
  %.0 = phi double [ 1.000000e+03, %7 ], [ %.8, %9 ]
  %12 = uitofp nneg i64 %3 to double
  %13 = fdiv double %12, %.0
  %14 = fmul double %13, 1.250000e-01
  tail call void (ptr, ptr, ...) @_ZN4base12StringPrintfB5cxx11EPKcz(ptr dead_on_unwind writable sret(%"class.std::__cxx11::basic_string") align 8 %0, ptr noundef nonnull @.str.3, double noundef %13, i32 noundef %.06, double noundef %14, i32 noundef %.06)
  br label %15

15:                                               ; preds = %11, %5
  ret void
}